; Function Attrs: null_pointer_is_valid sspstrong uwtable
define internal fastcc noundef zeroext i1 @blf_read_linwakeupevent(ptr noundef readonly captures(none) %0, ptr noundef %1, ptr noundef %2, i64 noundef %3, i64 noundef %4, i64 noundef range(i64 0, 4294967296) %5, i32 noundef %6, i64 noundef %7) unnamed_addr #2 {
  %9 = alloca %struct.blf_linwakeupevent, align 2
  %10 = alloca [12 x i8], align 1
  call void @llvm.lifetime.start.p0(i64 4, ptr nonnull %9) #14
  %reass.sub = sub i64 %4, %3
  %11 = add i64 %reass.sub, 4
  %12 = icmp slt i64 %5, %11
  br i1 %12, label %13, label %15

13:                                               ; preds = %8
  store i32 -13, ptr %1, align 4
  %14 = tail call noalias ptr @wmem_strdup(ptr noundef null, ptr noundef nonnull @.str.77)
  store ptr %14, ptr %2, align 8
  br label %blf_read_bytes.exit.thread

15:                                               ; preds = %8
  %16 = call fastcc zeroext i1 @blf_read_bytes_or_eof(ptr noundef readonly %0, i64 noundef %4, ptr noundef nonnull %9, i64 noundef 4, ptr noundef %1, ptr noundef %2)
  br i1 %16, label %blf_read_bytes.exit, label %17

17:                                               ; preds = %15
  %18 = load i32, ptr %1, align 4
  %19 = icmp eq i32 %18, 0
  br i1 %19, label %20, label %blf_read_bytes.exit.thread

20:                                               ; preds = %17
  store i32 -12, ptr %1, align 4
  br label %blf_read_bytes.exit.thread

blf_read_bytes.exit:                              ; preds = %15
  call void @llvm.lifetime.start.p0(i64 12, ptr nonnull %10) #14
  store i8 1, ptr %10, align 1
  %21 = getelementptr inbounds nuw i8, ptr %10, i64 1
  store i8 0, ptr %21, align 1
  %22 = getelementptr inbounds nuw i8, ptr %10, i64 2
  store i8 0, ptr %22, align 1
  %23 = getelementptr inbounds nuw i8, ptr %10, i64 3
  store i8 0, ptr %23, align 1
  %24 = getelementptr inbounds nuw i8, ptr %10, i64 4
  store i8 12, ptr %24, align 1
  %25 = getelementptr inbounds nuw i8, ptr %10, i64 5
  store i8 0, ptr %25, align 1
  %26 = getelementptr inbounds nuw i8, ptr %10, i64 6
  store i8 0, ptr %26, align 1
  %27 = getelementptr inbounds nuw i8, ptr %10, i64 7
  store i8 0, ptr %27, align 1
  %28 = getelementptr inbounds nuw i8, ptr %10, i64 8
  store i8 -80, ptr %28, align 1
  %29 = getelementptr inbounds nuw i8, ptr %10, i64 9
  store i8 -80, ptr %29, align 1
  %30 = getelementptr inbounds nuw i8, ptr %10, i64 10
  store i8 0, ptr %30, align 1
  %31 = getelementptr inbounds nuw i8, ptr %10, i64 11
  store i8 4, ptr %31, align 1
  %32 = getelementptr inbounds nuw i8, ptr %0, i64 8
  %33 = load ptr, ptr %32, align 8
  %34 = getelementptr inbounds nuw i8, ptr %33, i64 280
  call void @ws_buffer_append(ptr noundef nonnull %34, ptr noundef nonnull %10, i64 noundef 12)
  %35 = load i16, ptr %9, align 2
  call fastcc void @blf_init_rec(ptr noundef %0, i32 noundef %6, i64 noundef %7, i32 noundef 107, i16 noundef zeroext %35, i16 noundef zeroext -1, i32 noundef 12, i32 noundef 12)
  call void @llvm.lifetime.end.p0(i64 12, ptr nonnull %10) #14
  br label %blf_read_bytes.exit.thread

blf_read_bytes.exit.thread:                       ; preds = %20, %17, %blf_read_bytes.exit, %13
  %.0 = phi i1 [ false, %13 ], [ true, %blf_read_bytes.exit ], [ false, %17 ], [ false, %20 ]
  call void @llvm.lifetime.end.p0(i64 4, ptr nonnull %9) #14
  ret i1 %.0
}